target datalayout = "e-m:e-p270:32:32-p271:32:32-p272:64:64-i64:64-i128:128-f80:128-n8:16:32:64-S128"
target triple = "x86_64-pc-linux-gnu"

%"class.clang::Parser::LateParsedDeclaration" = type { ptr }
%"class.clang::Parser::LateParsedClass" = type { %"class.clang::Parser::LateParsedDeclaration", ptr, ptr }

; Function Attrs: mustprogress nounwind uwtable
define dso_local void @_ZN5clang6Parser21LateParsedDeclarationD2Ev(ptr noundef nonnull align 8 dereferenceable(8) %0) unnamed_addr #0 align 2 {
  %2 = alloca ptr, align 8
  store ptr %0, ptr %2, align 8
  ret void
}

; Function Attrs: mustprogress nounwind uwtable
define dso_local void @_ZN5clang6Parser15LateParsedClassD2Ev(ptr noundef nonnull align 8 dereferenceable(24) %0) unnamed_addr #0 align 2 {
  %2 = alloca ptr, align 8
  store ptr %0, ptr %2, align 8
  %3 = load ptr, ptr %2, align 8
  store ptr getelementptr inbounds inrange(-16, 56) ({ [9 x ptr] }, ptr @_ZTVN5clang6Parser15LateParsedClassE, i32 0, i32 0, i32 2), ptr %3, align 8
  %4 = getelementptr inbounds nuw %"class.clang::Parser::LateParsedClass", ptr %3, i32 0, i32 1
  %5 = load ptr, ptr %4, align 8
  %6 = getelementptr inbounds nuw %"class.clang::Parser::LateParsedClass", ptr %3, i32 0, i32 2
  %7 = load ptr, ptr %6, align 8
  call void @_ZN5clang6Parser23DeallocateParsedClassesEPNS0_12ParsingClassE(ptr noundef nonnull align 8 dereferenceable(2936) %5, ptr noundef %7)
  call void @_ZN5clang6Parser21LateParsedDeclarationD2Ev(ptr noundef nonnull align 8 dereferenceable(8) %3) #11
  ret void
}