; Function Attrs: mustprogress nounwind uwtable
define dso_local void @_ZN5clang6Parser15LateParsedClassD2Ev(ptr nocapture noundef nonnull align 8 dereferenceable(24) %0) unnamed_addr #0 align 2 {
  store ptr getelementptr inbounds inrange(-16, 56) (i8, ptr @_ZTVN5clang6Parser15LateParsedClassE, i64 16), ptr %0, align 8
  %2 = getelementptr inbounds nuw i8, ptr %0, i64 8
  %3 = load ptr, ptr %2, align 8
  %4 = getelementptr inbounds nuw i8, ptr %0, i64 16
  %5 = load ptr, ptr %4, align 8
  tail call void @_ZN5clang6Parser23DeallocateParsedClassesEPNS0_12ParsingClassE(ptr noundef nonnull align 8 dereferenceable(2936) %3, ptr noundef %5) #14
  ret void
}